target datalayout = "e-m:e-p270:32:32-p271:32:32-p272:64:64-i64:64-i128:128-f80:128-n8:16:32:64-S128"
target triple = "x86_64-pc-linux-gnu"

; Function Attrs: nounwind uwtable
define dso_local i32 @uv_os_gethostname(ptr noundef %0, ptr noundef %1) #0 {
  %3 = alloca i32, align 4
  %4 = alloca ptr, align 8
  %5 = alloca ptr, align 8
  %6 = alloca [65 x i8], align 16
  %7 = alloca i64, align 8
  %8 = alloca i32, align 4
  store ptr %0, ptr %4, align 8
  store ptr %1, ptr %5, align 8
  call void @llvm.lifetime.start.p0(i64 65, ptr %6) #11
  call void @llvm.lifetime.start.p0(i64 8, ptr %7) #11
  %9 = load ptr, ptr %4, align 8
  %10 = icmp eq ptr %9, null
  br i1 %10, label %18, label %11

11:                                               ; preds = %2
  %12 = load ptr, ptr %5, align 8
  %13 = icmp eq ptr %12, null
  br i1 %13, label %18, label %14

14:                                               ; preds = %11
  %15 = load ptr, ptr %5, align 8
  %16 = load i64, ptr %15, align 8
  %17 = icmp eq i64 %16, 0
  br i1 %17, label %18, label %19

18:                                               ; preds = %14, %11, %2
  store i32 -22, ptr %3, align 4
  store i32 1, ptr %8, align 4
  br label %46

19:                                               ; preds = %14
  %20 = getelementptr inbounds [65 x i8], ptr %6, i64 0, i64 0
  %21 = call i32 @gethostname(ptr noundef %20, i64 noundef 65) #11
  %22 = icmp ne i32 %21, 0
  br i1 %22, label %23, label %27

23:                                               ; preds = %19
  %24 = call ptr @__errno_location() #12
  %25 = load i32, ptr %24, align 4
  %26 = sub nsw i32 0, %25
  store i32 %26, ptr %3, align 4
  store i32 1, ptr %8, align 4
  br label %46

27:                                               ; preds = %19
  %28 = getelementptr inbounds nuw [65 x i8], ptr %6, i64 0, i64 64
  store i8 0, ptr %28, align 16
  %29 = getelementptr inbounds [65 x i8], ptr %6, i64 0, i64 0
  %30 = call i64 @strlen(ptr noundef %29) #13
  store i64 %30, ptr %7, align 8
  %31 = load i64, ptr %7, align 8
  %32 = load ptr, ptr %5, align 8
  %33 = load i64, ptr %32, align 8
  %34 = icmp uge i64 %31, %33
  br i1 %34, label %35, label %39

35:                                               ; preds = %27
  %36 = load i64, ptr %7, align 8
  %37 = add i64 %36, 1
  %38 = load ptr, ptr %5, align 8
  store i64 %37, ptr %38, align 8
  store i32 -105, ptr %3, align 4
  store i32 1, ptr %8, align 4
  br label %46

39:                                               ; preds = %27
  %40 = load ptr, ptr %4, align 8
  %41 = getelementptr inbounds [65 x i8], ptr %6, i64 0, i64 0
  %42 = load i64, ptr %7, align 8
  %43 = add i64 %42, 1
  call void @llvm.memcpy.p0.p0.i64(ptr align 1 %40, ptr align 16 %41, i64 %43, i1 false)
  %44 = load i64, ptr %7, align 8
  %45 = load ptr, ptr %5, align 8
  store i64 %44, ptr %45, align 8
  store i32 0, ptr %3, align 4
  store i32 1, ptr %8, align 4
  br label %46

46:                                               ; preds = %39, %35, %23, %18
  call void @llvm.lifetime.end.p0(i64 8, ptr %7) #11
  call void @llvm.lifetime.end.p0(i64 65, ptr %6) #11
  %47 = load i32, ptr %3, align 4
  ret i32 %47
}