; Function Attrs: nounwind uwtable
define dso_local range(i32 -2147483647, -2147483648) i32 @uv_os_gethostname(ptr noundef writeonly captures(address_is_null) %0, ptr noundef captures(address_is_null) %1) local_unnamed_addr #0 {
  %3 = alloca [65 x i8], align 16
  call void @llvm.lifetime.start.p0(i64 65, ptr nonnull %3) #23
  %4 = icmp eq ptr %0, null
  %5 = icmp eq ptr %1, null
  %or.cond = or i1 %4, %5
  br i1 %or.cond, label %22, label %6

6:                                                ; preds = %2
  %7 = load i64, ptr %1, align 8
  %8 = icmp eq i64 %7, 0
  br i1 %8, label %22, label %9

9:                                                ; preds = %6
  %10 = call i32 @gethostname(ptr noundef nonnull %3, i64 noundef 65) #23
  %.not = icmp eq i32 %10, 0
  br i1 %.not, label %15, label %11

11:                                               ; preds = %9
  %12 = tail call ptr @__errno_location() #24
  %13 = load i32, ptr %12, align 4
  %14 = sub nsw i32 0, %13
  br label %22

15:                                               ; preds = %9
  %16 = getelementptr inbounds nuw i8, ptr %3, i64 64
  store i8 0, ptr %16, align 16
  %17 = call i64 @strlen(ptr noundef nonnull dereferenceable(1) %3) #25
  %18 = load i64, ptr %1, align 8
  %.not15 = icmp ult i64 %17, %18
  %19 = add i64 %17, 1
  br i1 %.not15, label %21, label %20

20:                                               ; preds = %15
  store i64 %19, ptr %1, align 8
  br label %22

21:                                               ; preds = %15
  call void @llvm.memcpy.p0.p0.i64(ptr noundef nonnull align 1 dereferenceable(1) %0, ptr noundef nonnull align 16 dereferenceable(1) %3, i64 %19, i1 false)
  store i64 %17, ptr %1, align 8
  br label %22

22:                                               ; preds = %2, %6, %21, %20, %11
  %.0 = phi i32 [ %14, %11 ], [ -105, %20 ], [ 0, %21 ], [ -22, %6 ], [ -22, %2 ]
  call void @llvm.lifetime.end.p0(i64 65, ptr nonnull %3) #23
  ret i32 %.0
}